
DS18B20.elf:     file format elf32-littleriscv
DS18B20.elf
architecture: riscv:rv32, flags 0x00000112:
EXEC_P, HAS_SYMS, D_PAGED
start address 0x00000000

Program Header:
    LOAD off    0x00001000 vaddr 0x00000000 paddr 0x00000000 align 2**12
         filesz 0x000007f0 memsz 0x000007f0 flags r-x
    LOAD off    0x00002000 vaddr 0x20000000 paddr 0x000007f0 align 2**12
         filesz 0x00000008 memsz 0x00000010 flags rw-
    LOAD off    0x00000800 vaddr 0x2000f800 paddr 0x2000f800 align 2**12
         filesz 0x00000000 memsz 0x00000800 flags rw-

Sections:
Idx Name          Size      VMA       LMA       File off  Algn
  0 .init         00000038  00000000  00000000  00001000  2**1
                  CONTENTS, ALLOC, LOAD, READONLY, CODE
  1 .vector       000001c8  00000038  00000038  00001038  2**1
                  CONTENTS, ALLOC, LOAD, READONLY, CODE
  2 .text         000005f0  00000200  00000200  00001200  2**1
                  CONTENTS, ALLOC, LOAD, READONLY, CODE
  3 .fini         00000000  000007f0  000007f0  00002008  2**0
                  CONTENTS, ALLOC, LOAD, CODE
  4 .dalign       00000000  20000000  20000000  00002008  2**0
                  CONTENTS
  5 .dlalign      00000000  000007f0  000007f0  00002008  2**0
                  CONTENTS
  6 .data         00000008  20000000  000007f0  00002000  2**2
                  CONTENTS, ALLOC, LOAD, DATA
  7 .bss          00000008  20000008  000007f8  00002008  2**2
                  ALLOC
  8 .stack        00000800  2000f800  2000f800  00002800  2**0
                  ALLOC
  9 .debug_info   00002ecb  00000000  00000000  00002008  2**0
                  CONTENTS, READONLY, DEBUGGING, OCTETS
 10 .debug_abbrev 00000dde  00000000  00000000  00004ed3  2**0
                  CONTENTS, READONLY, DEBUGGING, OCTETS
 11 .debug_aranges 000003b0  00000000  00000000  00005cb8  2**3
                  CONTENTS, READONLY, DEBUGGING, OCTETS
 12 .debug_ranges 00000438  00000000  00000000  00006068  2**3
                  CONTENTS, READONLY, DEBUGGING, OCTETS
 13 .debug_line   00004899  00000000  00000000  000064a0  2**0
                  CONTENTS, READONLY, DEBUGGING, OCTETS
 14 .debug_str    000016cc  00000000  00000000  0000ad39  2**0
                  CONTENTS, READONLY, DEBUGGING, OCTETS
 15 .comment      00000033  00000000  00000000  0000c405  2**0
                  CONTENTS, READONLY
 16 .debug_frame  000006f8  00000000  00000000  0000c438  2**2
                  CONTENTS, READONLY, DEBUGGING, OCTETS
 17 .debug_loc    0000151a  00000000  00000000  0000cb30  2**0
                  CONTENTS, READONLY, DEBUGGING, OCTETS
SYMBOL TABLE:
00000000 l    d  .init	00000000 .init
00000038 l    d  .vector	00000000 .vector
00000200 l    d  .text	00000000 .text
000007f0 l    d  .fini	00000000 .fini
20000000 l    d  .dalign	00000000 .dalign
000007f0 l    d  .dlalign	00000000 .dlalign
20000000 l    d  .data	00000000 .data
20000008 l    d  .bss	00000000 .bss
2000f800 l    d  .stack	00000000 .stack
00000000 l    d  .debug_info	00000000 .debug_info
00000000 l    d  .debug_abbrev	00000000 .debug_abbrev
00000000 l    d  .debug_aranges	00000000 .debug_aranges
00000000 l    d  .debug_ranges	00000000 .debug_ranges
00000000 l    d  .debug_line	00000000 .debug_line
00000000 l    d  .debug_str	00000000 .debug_str
00000000 l    d  .comment	00000000 .comment
00000000 l    d  .debug_frame	00000000 .debug_frame
00000000 l    d  .debug_loc	00000000 .debug_loc
00000000 l    df *ABS*	00000000 ./Startup/startup_ch32v30x_D8C.o
00000038 l       .vector	00000000 _vector_base
00000000 l    df *ABS*	00000000 ch32v30x_it.c
00000000 l    df *ABS*	00000000 ds18b20.c
00000000 l    df *ABS*	00000000 main.c
00000000 l    df *ABS*	00000000 system_ch32v30x.c
00000000 l    df *ABS*	00000000 ch32v30x_gpio.c
00000000 l    df *ABS*	00000000 ch32v30x_misc.c
00000000 l    df *ABS*	00000000 ch32v30x_rcc.c
00000000 l    df *ABS*	00000000 debug.c
2000000c l     O .bss	00000002 p_ms
2000000e l     O .bss	00000001 p_us
0000053c  w      .text	00000000 EXTI2_IRQHandler
00000586  w      .text	00000000 TIM8_TRG_COM_IRQHandler
00000588  w      .text	00000000 TIM8_CC_IRQHandler
000002c8 g     F .text	00000030 w1_find
000002f8 g     F .text	0000003c w1_sendcmd
000005be  w      .text	00000000 UART8_IRQHandler
20000800 g       .data	00000000 __global_pointer$
00000208 g     F .text	00000028 .hidden __riscv_save_8
00000562  w      .text	00000000 TIM1_CC_IRQHandler
00000262 g     F .text	00000002 HardFault_Handler
00000254 g     F .text	0000000c .hidden __riscv_restore_3
00000598  w      .text	00000000 TIM6_IRQHandler
00000528  w      .text	00000000 SysTick_Handler
0000052e  w      .text	00000000 PVD_IRQHandler
0000058e  w      .text	00000000 SDIO_IRQHandler
000005c0  w      .text	00000000 TIM9_BRK_IRQHandler
00000240 g     F .text	00000020 .hidden __riscv_restore_10
000005d4  w      .text	00000000 DMA2_Channel8_IRQHandler
00000260 g     F .text	00000002 NMI_Handler
000005ae  w      .text	00000000 CAN2_RX1_IRQHandler
0000053e  w      .text	00000000 EXTI3_IRQHandler
00000208 g     F .text	00000028 .hidden __riscv_save_11
000005b6  w      .text	00000000 USBHS_IRQHandler
000005d6  w      .text	00000000 DMA2_Channel9_IRQHandler
000005ce  w      .text	00000000 TIM10_CC_IRQHandler
20000008 g       .bss	00000000 _sbss
00000800 g       *ABS*	00000000 __stack_size
00000296 g     F .text	00000032 GPIOA10_One
00000254 g     F .text	0000000c .hidden __riscv_restore_2
00000538  w      .text	00000000 EXTI0_IRQHandler
0000056e  w      .text	00000000 I2C2_EV_IRQHandler
000005cc  w      .text	00000000 TIM10_TRG_COM_IRQHandler
20000000 g     O .data	00000004 SystemCoreClock
00000038 g       .init	00000000 _einit
0000073a g     F .text	0000001e RCC_APB2PeriphClockCmd
00000200 g     F .text	00000030 .hidden __riscv_save_12
000005b0  w      .text	00000000 CAN2_SCE_IRQHandler
00000550  w      .text	00000000 ADC1_2_IRQHandler
00000660 g     F .text	000000c2 GPIO_Init
00000526  w      .text	00000000 Break_Point_Handler
00000388 g     F .text	0000003e get_temp_18b20
00000240 g     F .text	00000020 .hidden __riscv_restore_11
20000008 g     O .bss	00000004 NVIC_Priority_Group
00000572  w      .text	00000000 SPI1_IRQHandler
00000530  w      .text	00000000 TAMPER_IRQHandler
00000230 g     F .text	0000000c .hidden __riscv_save_1
00000254 g     F .text	0000000c .hidden __riscv_restore_0
00000216 g     F .text	0000001a .hidden __riscv_save_7
000005ac  w      .text	00000000 CAN2_RX0_IRQHandler
00000584  w      .text	00000000 TIM8_UP_IRQHandler
00000522  w      .text	00000000 Ecall_M_Mode_Handler
2000f800 g       .stack	00000000 _heap_end
00000782 g     F .text	00000036 Delay_Us
0000024a g     F .text	00000016 .hidden __riscv_restore_5
0000059e  w      .text	00000000 DMA2_Channel2_IRQHandler
00000548  w      .text	00000000 DMA1_Channel4_IRQHandler
000005c2  w      .text	00000000 TIM9_UP_IRQHandler
0000024a g     F .text	00000016 .hidden __riscv_restore_6
0000057a  w      .text	00000000 USART3_IRQHandler
00000532  w      .text	00000000 RTC_IRQHandler
20000010 g       .bss	00000000 _ebss
0000054e  w      .text	00000000 DMA1_Channel7_IRQHandler
00000556  w      .text	00000000 CAN1_RX1_IRQHandler
00000758 g     F .text	0000002a Delay_Init
000005b8  w      .text	00000000 DVP_IRQHandler
00000596  w      .text	00000000 UART5_IRQHandler
00000264 g     F .text	00000032 GPIOA10_Zero
0000072c g     F .text	00000004 GPIO_SetBits
00000568  w      .text	00000000 TIM4_IRQHandler
00000208 g     F .text	00000028 .hidden __riscv_save_9
0000059c  w      .text	00000000 DMA2_Channel1_IRQHandler
00000216 g     F .text	0000001a .hidden __riscv_save_4
0000056a  w      .text	00000000 I2C1_EV_IRQHandler
0000054c  w      .text	00000000 DMA1_Channel6_IRQHandler
00000594  w      .text	00000000 UART4_IRQHandler
000005a2  w      .text	00000000 DMA2_Channel4_IRQHandler
00000566  w      .text	00000000 TIM3_IRQHandler
00000536  w      .text	00000000 RCC_IRQHandler
00000230 g     F .text	0000000c .hidden __riscv_save_3
00000560  w      .text	00000000 TIM1_TRG_COM_IRQHandler
00000542  w      .text	00000000 DMA1_Channel1_IRQHandler
00000000 g       .init	00000000 _start
000005d2  w      .text	00000000 DMA2_Channel7_IRQHandler
0000057c  w      .text	00000000 EXTI15_10_IRQHandler
00000730 g     F .text	00000004 GPIO_ResetBits
0000059a  w      .text	00000000 TIM7_IRQHandler
000005aa  w      .text	00000000 CAN2_TX_IRQHandler
20000000 g       .dalign	00000000 _data_vma
00000590  w      .text	00000000 TIM5_IRQHandler
0000055a  w      .text	00000000 EXTI9_5_IRQHandler
00000208 g     F .text	00000028 .hidden __riscv_save_10
000005a8  w      .text	00000000 ETH_WKUP_IRQHandler
0000024a g     F .text	00000016 .hidden __riscv_restore_4
00000240 g     F .text	00000020 .hidden __riscv_restore_8
000003c6 g     F .text	0000002e GPIO_LED_INIT
00000216 g     F .text	0000001a .hidden __riscv_save_6
00000574  w      .text	00000000 SPI2_IRQHandler
00000240 g     F .text	00000020 .hidden __riscv_restore_9
0000024a g     F .text	00000016 .hidden __riscv_restore_7
000003f4 g     F .text	00000030 main
000005c8  w      .text	00000000 TIM10_BRK_IRQHandler
000005c6  w      .text	00000000 TIM9_CC_IRQHandler
000005a4  w      .text	00000000 DMA2_Channel5_IRQHandler
0000054a  w      .text	00000000 DMA1_Channel5_IRQHandler
00000540  w      .text	00000000 EXTI4_IRQHandler
000007b8 g     F .text	00000036 Delay_Ms
00000554  w      .text	00000000 USB_LP_CAN1_RX0_IRQHandler
00000424 g     F .text	000000fa SystemInit
0000058a  w      .text	00000000 RNG_IRQHandler
00000552  w      .text	00000000 USB_HP_CAN1_TX_IRQHandler
00000000 g       .init	00000000 _sinit
00000334 g     F .text	00000054 w1_receive_byte
00000546  w      .text	00000000 DMA1_Channel3_IRQHandler
0000058c  w      .text	00000000 FSMC_IRQHandler
000005a6  w      .text	00000000 ETH_IRQHandler
0000055e  w      .text	00000000 TIM1_UP_IRQHandler
0000052c  w      .text	00000000 WWDG_IRQHandler
000005b4  w      .text	00000000 USBHSWakeup_IRQHandler
000005da  w      .text	00000000 DMA2_Channel11_IRQHandler
00000524  w      .text	00000000 Ecall_U_Mode_Handler
000005d0  w      .text	00000000 DMA2_Channel6_IRQHandler
00000564  w      .text	00000000 TIM2_IRQHandler
20010000 g       .stack	00000000 _eusrstack
00000230 g     F .text	0000000c .hidden __riscv_save_2
0000052a  w      .text	00000000 SW_Handler
0000055c  w      .text	00000000 TIM1_BRK_IRQHandler
000005d8  w      .text	00000000 DMA2_Channel10_IRQHandler
0000053a  w      .text	00000000 EXTI1_IRQHandler
00000216 g     F .text	0000001a .hidden __riscv_save_5
20000008 g       .data	00000000 _edata
20000010 g       .bss	00000000 _end
0000057e  w      .text	00000000 RTCAlarm_IRQHandler
000007f0 g       .dlalign	00000000 _data_lma
000005ca  w      .text	00000000 TIM10_UP_IRQHandler
000005c4  w      .text	00000000 TIM9_TRG_COM_IRQHandler
000005bc  w      .text	00000000 UART7_IRQHandler
00000578  w      .text	00000000 USART2_IRQHandler
000005ba  w      .text	00000000 UART6_IRQHandler
00000570  w      .text	00000000 I2C2_ER_IRQHandler
00000544  w      .text	00000000 DMA1_Channel2_IRQHandler
0000023c g     F .text	00000024 .hidden __riscv_restore_12
00000582  w      .text	00000000 TIM8_BRK_IRQHandler
000005dc  w      .text	00000000 handle_reset
00000558  w      .text	00000000 CAN1_SCE_IRQHandler
00000534  w      .text	00000000 FLASH_IRQHandler
00000230 g     F .text	0000000c .hidden __riscv_save_0
00000576  w      .text	00000000 USART1_IRQHandler
000005b2  w      .text	00000000 OTG_FS_IRQHandler
00000592  w      .text	00000000 SPI3_IRQHandler
0000056c  w      .text	00000000 I2C1_ER_IRQHandler
00000734 g     F .text	00000006 NVIC_PriorityGroupConfig
00000254 g     F .text	0000000c .hidden __riscv_restore_1
00000722 g     F .text	0000000a GPIO_ReadInputDataBit
00000580  w      .text	00000000 USBWakeUp_IRQHandler
000005a0  w      .text	00000000 DMA2_Channel3_IRQHandler



Disassembly of section .init:

00000000 <_sinit>:
   0:	5dc0006f          	j	5dc <handle_reset>
   4:	00000013          	nop
   8:	00000013          	nop
   c:	00000013          	nop
  10:	00000013          	nop
  14:	00000013          	nop
  18:	00000013          	nop
  1c:	00000013          	nop
  20:	00000013          	nop
  24:	00000013          	nop
  28:	00000013          	nop
  2c:	00000013          	nop
  30:	00000013          	nop
  34:	00100073          	ebreak

Disassembly of section .vector:

00000038 <_vector_base>:
	...
  40:	0260                	addi	s0,sp,268
  42:	0000                	unimp
  44:	0262                	slli	tp,tp,0x18
  46:	0000                	unimp
  48:	0000                	unimp
  4a:	0000                	unimp
  4c:	0522                	slli	a0,a0,0x8
	...
  56:	0000                	unimp
  58:	0524                	addi	s1,sp,648
  5a:	0000                	unimp
  5c:	0526                	slli	a0,a0,0x9
	...
  66:	0000                	unimp
  68:	0528                	addi	a0,sp,648
  6a:	0000                	unimp
  6c:	0000                	unimp
  6e:	0000                	unimp
  70:	052a                	slli	a0,a0,0xa
  72:	0000                	unimp
  74:	0000                	unimp
  76:	0000                	unimp
  78:	052c                	addi	a1,sp,648
  7a:	0000                	unimp
  7c:	052e                	slli	a0,a0,0xb
  7e:	0000                	unimp
  80:	0530                	addi	a2,sp,648
  82:	0000                	unimp
  84:	0532                	slli	a0,a0,0xc
  86:	0000                	unimp
  88:	0534                	addi	a3,sp,648
  8a:	0000                	unimp
  8c:	0536                	slli	a0,a0,0xd
  8e:	0000                	unimp
  90:	0538                	addi	a4,sp,648
  92:	0000                	unimp
  94:	053a                	slli	a0,a0,0xe
  96:	0000                	unimp
  98:	053c                	addi	a5,sp,648
  9a:	0000                	unimp
  9c:	053e                	slli	a0,a0,0xf
  9e:	0000                	unimp
  a0:	0540                	addi	s0,sp,644
  a2:	0000                	unimp
  a4:	0542                	slli	a0,a0,0x10
  a6:	0000                	unimp
  a8:	0544                	addi	s1,sp,644
  aa:	0000                	unimp
  ac:	0546                	slli	a0,a0,0x11
  ae:	0000                	unimp
  b0:	0548                	addi	a0,sp,644
  b2:	0000                	unimp
  b4:	054a                	slli	a0,a0,0x12
  b6:	0000                	unimp
  b8:	054c                	addi	a1,sp,644
  ba:	0000                	unimp
  bc:	054e                	slli	a0,a0,0x13
  be:	0000                	unimp
  c0:	0550                	addi	a2,sp,644
  c2:	0000                	unimp
  c4:	0552                	slli	a0,a0,0x14
  c6:	0000                	unimp
  c8:	0554                	addi	a3,sp,644
  ca:	0000                	unimp
  cc:	0556                	slli	a0,a0,0x15
  ce:	0000                	unimp
  d0:	0558                	addi	a4,sp,644
  d2:	0000                	unimp
  d4:	055a                	slli	a0,a0,0x16
  d6:	0000                	unimp
  d8:	055c                	addi	a5,sp,644
  da:	0000                	unimp
  dc:	055e                	slli	a0,a0,0x17
  de:	0000                	unimp
  e0:	0560                	addi	s0,sp,652
  e2:	0000                	unimp
  e4:	0562                	slli	a0,a0,0x18
  e6:	0000                	unimp
  e8:	0564                	addi	s1,sp,652
  ea:	0000                	unimp
  ec:	0566                	slli	a0,a0,0x19
  ee:	0000                	unimp
  f0:	0568                	addi	a0,sp,652
  f2:	0000                	unimp
  f4:	056a                	slli	a0,a0,0x1a
  f6:	0000                	unimp
  f8:	056c                	addi	a1,sp,652
  fa:	0000                	unimp
  fc:	056e                	slli	a0,a0,0x1b
  fe:	0000                	unimp
 100:	0570                	addi	a2,sp,652
 102:	0000                	unimp
 104:	0572                	slli	a0,a0,0x1c
 106:	0000                	unimp
 108:	0574                	addi	a3,sp,652
 10a:	0000                	unimp
 10c:	0576                	slli	a0,a0,0x1d
 10e:	0000                	unimp
 110:	0578                	addi	a4,sp,652
 112:	0000                	unimp
 114:	057a                	slli	a0,a0,0x1e
 116:	0000                	unimp
 118:	057c                	addi	a5,sp,652
 11a:	0000                	unimp
 11c:	057e                	slli	a0,a0,0x1f
 11e:	0000                	unimp
 120:	0580                	addi	s0,sp,704
 122:	0000                	unimp
 124:	0582                	c.slli64	a1
 126:	0000                	unimp
 128:	0584                	addi	s1,sp,704
 12a:	0000                	unimp
 12c:	0586                	slli	a1,a1,0x1
 12e:	0000                	unimp
 130:	0588                	addi	a0,sp,704
 132:	0000                	unimp
 134:	058a                	slli	a1,a1,0x2
 136:	0000                	unimp
 138:	058c                	addi	a1,sp,704
 13a:	0000                	unimp
 13c:	058e                	slli	a1,a1,0x3
 13e:	0000                	unimp
 140:	0590                	addi	a2,sp,704
 142:	0000                	unimp
 144:	0592                	slli	a1,a1,0x4
 146:	0000                	unimp
 148:	0594                	addi	a3,sp,704
 14a:	0000                	unimp
 14c:	0596                	slli	a1,a1,0x5
 14e:	0000                	unimp
 150:	0598                	addi	a4,sp,704
 152:	0000                	unimp
 154:	059a                	slli	a1,a1,0x6
 156:	0000                	unimp
 158:	059c                	addi	a5,sp,704
 15a:	0000                	unimp
 15c:	059e                	slli	a1,a1,0x7
 15e:	0000                	unimp
 160:	05a0                	addi	s0,sp,712
 162:	0000                	unimp
 164:	05a2                	slli	a1,a1,0x8
 166:	0000                	unimp
 168:	05a4                	addi	s1,sp,712
 16a:	0000                	unimp
 16c:	05a6                	slli	a1,a1,0x9
 16e:	0000                	unimp
 170:	05a8                	addi	a0,sp,712
 172:	0000                	unimp
 174:	05aa                	slli	a1,a1,0xa
 176:	0000                	unimp
 178:	05ac                	addi	a1,sp,712
 17a:	0000                	unimp
 17c:	05ae                	slli	a1,a1,0xb
 17e:	0000                	unimp
 180:	05b0                	addi	a2,sp,712
 182:	0000                	unimp
 184:	05b2                	slli	a1,a1,0xc
 186:	0000                	unimp
 188:	05b4                	addi	a3,sp,712
 18a:	0000                	unimp
 18c:	05b6                	slli	a1,a1,0xd
 18e:	0000                	unimp
 190:	05b8                	addi	a4,sp,712
 192:	0000                	unimp
 194:	05ba                	slli	a1,a1,0xe
 196:	0000                	unimp
 198:	05bc                	addi	a5,sp,712
 19a:	0000                	unimp
 19c:	05be                	slli	a1,a1,0xf
 19e:	0000                	unimp
 1a0:	05c0                	addi	s0,sp,708
 1a2:	0000                	unimp
 1a4:	05c2                	slli	a1,a1,0x10
 1a6:	0000                	unimp
 1a8:	05c4                	addi	s1,sp,708
 1aa:	0000                	unimp
 1ac:	05c6                	slli	a1,a1,0x11
 1ae:	0000                	unimp
 1b0:	05c8                	addi	a0,sp,708
 1b2:	0000                	unimp
 1b4:	05ca                	slli	a1,a1,0x12
 1b6:	0000                	unimp
 1b8:	05cc                	addi	a1,sp,708
 1ba:	0000                	unimp
 1bc:	05ce                	slli	a1,a1,0x13
 1be:	0000                	unimp
 1c0:	05d0                	addi	a2,sp,708
 1c2:	0000                	unimp
 1c4:	05d2                	slli	a1,a1,0x14
 1c6:	0000                	unimp
 1c8:	05d4                	addi	a3,sp,708
 1ca:	0000                	unimp
 1cc:	05d6                	slli	a1,a1,0x15
 1ce:	0000                	unimp
 1d0:	05d8                	addi	a4,sp,708
 1d2:	0000                	unimp
 1d4:	05da                	slli	a1,a1,0x16
	...

Disassembly of section .text:

00000200 <__riscv_save_12>:
 200:	7139                	addi	sp,sp,-64
 202:	4301                	li	t1,0
 204:	c66e                	sw	s11,12(sp)
 206:	a019                	j	20c <__riscv_save_10+0x4>

00000208 <__riscv_save_10>:
 208:	7139                	addi	sp,sp,-64
 20a:	5341                	li	t1,-16
 20c:	c86a                	sw	s10,16(sp)
 20e:	ca66                	sw	s9,20(sp)
 210:	cc62                	sw	s8,24(sp)
 212:	ce5e                	sw	s7,28(sp)
 214:	a019                	j	21a <__riscv_save_4+0x4>

00000216 <__riscv_save_4>:
 216:	7139                	addi	sp,sp,-64
 218:	5301                	li	t1,-32
 21a:	d05a                	sw	s6,32(sp)
 21c:	d256                	sw	s5,36(sp)
 21e:	d452                	sw	s4,40(sp)
 220:	d64e                	sw	s3,44(sp)
 222:	d84a                	sw	s2,48(sp)
 224:	da26                	sw	s1,52(sp)
 226:	dc22                	sw	s0,56(sp)
 228:	de06                	sw	ra,60(sp)
 22a:	40610133          	sub	sp,sp,t1
 22e:	8282                	jr	t0

00000230 <__riscv_save_0>:
 230:	1141                	addi	sp,sp,-16
 232:	c04a                	sw	s2,0(sp)
 234:	c226                	sw	s1,4(sp)
 236:	c422                	sw	s0,8(sp)
 238:	c606                	sw	ra,12(sp)
 23a:	8282                	jr	t0

0000023c <__riscv_restore_12>:
 23c:	4db2                	lw	s11,12(sp)
 23e:	0141                	addi	sp,sp,16

00000240 <__riscv_restore_10>:
 240:	4d02                	lw	s10,0(sp)
 242:	4c92                	lw	s9,4(sp)
 244:	4c22                	lw	s8,8(sp)
 246:	4bb2                	lw	s7,12(sp)
 248:	0141                	addi	sp,sp,16

0000024a <__riscv_restore_4>:
 24a:	4b02                	lw	s6,0(sp)
 24c:	4a92                	lw	s5,4(sp)
 24e:	4a22                	lw	s4,8(sp)
 250:	49b2                	lw	s3,12(sp)
 252:	0141                	addi	sp,sp,16

00000254 <__riscv_restore_0>:
 254:	4902                	lw	s2,0(sp)
 256:	4492                	lw	s1,4(sp)
 258:	4422                	lw	s0,8(sp)
 25a:	40b2                	lw	ra,12(sp)
 25c:	0141                	addi	sp,sp,16
 25e:	8082                	ret

00000260 <NMI_Handler>:
 260:	8082                	ret

00000262 <HardFault_Handler>:
 262:	a001                	j	262 <HardFault_Handler>

00000264 <GPIOA10_Zero>:
 264:	fcdff2ef          	jal	t0,230 <__riscv_save_0>
 268:	1141                	addi	sp,sp,-16
 26a:	4585                	li	a1,1
 26c:	4511                	li	a0,4
 26e:	c202                	sw	zero,4(sp)
 270:	c402                	sw	zero,8(sp)
 272:	c602                	sw	zero,12(sp)
 274:	21d9                	jal	73a <RCC_APB2PeriphClockCmd>
 276:	40000793          	li	a5,1024
 27a:	00f11223          	sh	a5,4(sp)
 27e:	40011537          	lui	a0,0x40011
 282:	47c1                	li	a5,16
 284:	c63e                	sw	a5,12(sp)
 286:	004c                	addi	a1,sp,4
 288:	478d                	li	a5,3
 28a:	80050513          	addi	a0,a0,-2048 # 40010800 <_eusrstack+0x20000800>
 28e:	c43e                	sw	a5,8(sp)
 290:	2ec1                	jal	660 <GPIO_Init>
 292:	0141                	addi	sp,sp,16
 294:	b7c1                	j	254 <__riscv_restore_0>

00000296 <GPIOA10_One>:
 296:	f9bff2ef          	jal	t0,230 <__riscv_save_0>
 29a:	1141                	addi	sp,sp,-16
 29c:	4585                	li	a1,1
 29e:	4511                	li	a0,4
 2a0:	c202                	sw	zero,4(sp)
 2a2:	c402                	sw	zero,8(sp)
 2a4:	c602                	sw	zero,12(sp)
 2a6:	2951                	jal	73a <RCC_APB2PeriphClockCmd>
 2a8:	40000793          	li	a5,1024
 2ac:	00f11223          	sh	a5,4(sp)
 2b0:	40011537          	lui	a0,0x40011
 2b4:	4791                	li	a5,4
 2b6:	c63e                	sw	a5,12(sp)
 2b8:	004c                	addi	a1,sp,4
 2ba:	478d                	li	a5,3
 2bc:	80050513          	addi	a0,a0,-2048 # 40010800 <_eusrstack+0x20000800>
 2c0:	c43e                	sw	a5,8(sp)
 2c2:	2e79                	jal	660 <GPIO_Init>
 2c4:	0141                	addi	sp,sp,16
 2c6:	b779                	j	254 <__riscv_restore_0>

000002c8 <w1_find>:
 2c8:	f69ff2ef          	jal	t0,230 <__riscv_save_0>
 2cc:	3f61                	jal	264 <GPIOA10_Zero>
 2ce:	1e000513          	li	a0,480
 2d2:	2945                	jal	782 <Delay_Us>
 2d4:	37c9                	jal	296 <GPIOA10_One>
 2d6:	04100513          	li	a0,65
 2da:	2165                	jal	782 <Delay_Us>
 2dc:	40011537          	lui	a0,0x40011
 2e0:	40000593          	li	a1,1024
 2e4:	80050513          	addi	a0,a0,-2048 # 40010800 <_eusrstack+0x20000800>
 2e8:	292d                	jal	722 <GPIO_ReadInputDataBit>
 2ea:	842a                	mv	s0,a0
 2ec:	1a400513          	li	a0,420
 2f0:	2949                	jal	782 <Delay_Us>
 2f2:	00143513          	seqz	a0,s0
 2f6:	bfb9                	j	254 <__riscv_restore_0>

000002f8 <w1_sendcmd>:
 2f8:	f1fff2ef          	jal	t0,216 <__riscv_save_4>
 2fc:	84aa                	mv	s1,a0
 2fe:	4401                	li	s0,0
 300:	4985                	li	s3,1
 302:	4921                	li	s2,8
 304:	008997b3          	sll	a5,s3,s0
 308:	00f4f733          	and	a4,s1,a5
 30c:	00e79d63          	bne	a5,a4,326 <w1_sendcmd+0x2e>
 310:	3f91                	jal	264 <GPIOA10_Zero>
 312:	4509                	li	a0,2
 314:	21bd                	jal	782 <Delay_Us>
 316:	3741                	jal	296 <GPIOA10_One>
 318:	04100513          	li	a0,65
 31c:	0405                	addi	s0,s0,1
 31e:	2195                	jal	782 <Delay_Us>
 320:	ff2412e3          	bne	s0,s2,304 <w1_sendcmd+0xc>
 324:	b71d                	j	24a <__riscv_restore_4>
 326:	3f3d                	jal	264 <GPIOA10_Zero>
 328:	04100513          	li	a0,65
 32c:	2999                	jal	782 <Delay_Us>
 32e:	37a5                	jal	296 <GPIOA10_One>
 330:	4515                	li	a0,5
 332:	b7ed                	j	31c <w1_sendcmd+0x24>

00000334 <w1_receive_byte>:
 334:	ee3ff2ef          	jal	t0,216 <__riscv_save_4>
 338:	40011937          	lui	s2,0x40011
 33c:	4481                	li	s1,0
 33e:	4401                	li	s0,0
 340:	80090913          	addi	s2,s2,-2048 # 40010800 <_eusrstack+0x20000800>
 344:	4a05                	li	s4,1
 346:	49a1                	li	s3,8
 348:	3f31                	jal	264 <GPIOA10_Zero>
 34a:	4509                	li	a0,2
 34c:	291d                	jal	782 <Delay_Us>
 34e:	37a1                	jal	296 <GPIOA10_One>
 350:	451d                	li	a0,7
 352:	2905                	jal	782 <Delay_Us>
 354:	40000593          	li	a1,1024
 358:	854a                	mv	a0,s2
 35a:	26e1                	jal	722 <GPIO_ReadInputDataBit>
 35c:	009a17b3          	sll	a5,s4,s1
 360:	07e2                	slli	a5,a5,0x18
 362:	0462                	slli	s0,s0,0x18
 364:	87e1                	srai	a5,a5,0x18
 366:	8461                	srai	s0,s0,0x18
 368:	ed11                	bnez	a0,384 <w1_receive_byte+0x50>
 36a:	fff7c793          	not	a5,a5
 36e:	8c7d                	and	s0,s0,a5
 370:	03200513          	li	a0,50
 374:	0485                	addi	s1,s1,1
 376:	0ff47413          	zext.b	s0,s0
 37a:	2121                	jal	782 <Delay_Us>
 37c:	fd3496e3          	bne	s1,s3,348 <w1_receive_byte+0x14>
 380:	8522                	mv	a0,s0
 382:	b5e1                	j	24a <__riscv_restore_4>
 384:	8c5d                	or	s0,s0,a5
 386:	b7ed                	j	370 <w1_receive_byte+0x3c>

00000388 <get_temp_18b20>:
 388:	ea9ff2ef          	jal	t0,230 <__riscv_save_0>
 38c:	3f35                	jal	2c8 <w1_find>
 38e:	872a                	mv	a4,a0
 390:	4785                	li	a5,1
 392:	4501                	li	a0,0
 394:	02f71863          	bne	a4,a5,3c4 <get_temp_18b20+0x3c>
 398:	0cc00513          	li	a0,204
 39c:	3fb1                	jal	2f8 <w1_sendcmd>
 39e:	04400513          	li	a0,68
 3a2:	3f99                	jal	2f8 <w1_sendcmd>
 3a4:	2ee00513          	li	a0,750
 3a8:	2901                	jal	7b8 <Delay_Ms>
 3aa:	3f39                	jal	2c8 <w1_find>
 3ac:	0cc00513          	li	a0,204
 3b0:	37a1                	jal	2f8 <w1_sendcmd>
 3b2:	0be00513          	li	a0,190
 3b6:	3789                	jal	2f8 <w1_sendcmd>
 3b8:	3fb5                	jal	334 <w1_receive_byte>
 3ba:	842a                	mv	s0,a0
 3bc:	3fa5                	jal	334 <w1_receive_byte>
 3be:	0522                	slli	a0,a0,0x8
 3c0:	9522                	add	a0,a0,s0
 3c2:	8511                	srai	a0,a0,0x4
 3c4:	bd41                	j	254 <__riscv_restore_0>

000003c6 <GPIO_LED_INIT>:
 3c6:	e6bff2ef          	jal	t0,230 <__riscv_save_0>
 3ca:	1141                	addi	sp,sp,-16
 3cc:	4585                	li	a1,1
 3ce:	4521                	li	a0,8
 3d0:	c202                	sw	zero,4(sp)
 3d2:	c402                	sw	zero,8(sp)
 3d4:	c602                	sw	zero,12(sp)
 3d6:	2695                	jal	73a <RCC_APB2PeriphClockCmd>
 3d8:	47c1                	li	a5,16
 3da:	40011537          	lui	a0,0x40011
 3de:	00f11223          	sh	a5,4(sp)
 3e2:	c63e                	sw	a5,12(sp)
 3e4:	004c                	addi	a1,sp,4
 3e6:	478d                	li	a5,3
 3e8:	c0050513          	addi	a0,a0,-1024 # 40010c00 <_eusrstack+0x20000c00>
 3ec:	c43e                	sw	a5,8(sp)
 3ee:	2c8d                	jal	660 <GPIO_Init>
 3f0:	0141                	addi	sp,sp,16
 3f2:	b58d                	j	254 <__riscv_restore_0>

000003f4 <main>:
 3f4:	e3dff2ef          	jal	t0,230 <__riscv_save_0>
 3f8:	4509                	li	a0,2
 3fa:	40011437          	lui	s0,0x40011
 3fe:	2e1d                	jal	734 <NVIC_PriorityGroupConfig>
 400:	44e9                	li	s1,26
 402:	2e99                	jal	758 <Delay_Init>
 404:	c0040413          	addi	s0,s0,-1024 # 40010c00 <_eusrstack+0x20000c00>
 408:	3f7d                	jal	3c6 <GPIO_LED_INIT>
 40a:	3fbd                	jal	388 <get_temp_18b20>
 40c:	45c1                	li	a1,16
 40e:	00a4d863          	bge	s1,a0,41e <main+0x2a>
 412:	8522                	mv	a0,s0
 414:	2e21                	jal	72c <GPIO_SetBits>
 416:	7d000513          	li	a0,2000
 41a:	2e79                	jal	7b8 <Delay_Ms>
 41c:	b7fd                	j	40a <main+0x16>
 41e:	8522                	mv	a0,s0
 420:	2e01                	jal	730 <GPIO_ResetBits>
 422:	bfd5                	j	416 <main+0x22>

00000424 <SystemInit>:
 424:	400217b7          	lui	a5,0x40021
 428:	4398                	lw	a4,0(a5)
 42a:	f8ff06b7          	lui	a3,0xf8ff0
 42e:	1141                	addi	sp,sp,-16
 430:	00176713          	ori	a4,a4,1
 434:	c398                	sw	a4,0(a5)
 436:	43d8                	lw	a4,4(a5)
 438:	00020637          	lui	a2,0x20
 43c:	8f75                	and	a4,a4,a3
 43e:	c3d8                	sw	a4,4(a5)
 440:	4398                	lw	a4,0(a5)
 442:	fef706b7          	lui	a3,0xfef70
 446:	16fd                	addi	a3,a3,-1
 448:	8f75                	and	a4,a4,a3
 44a:	c398                	sw	a4,0(a5)
 44c:	4398                	lw	a4,0(a5)
 44e:	fffc06b7          	lui	a3,0xfffc0
 452:	16fd                	addi	a3,a3,-1
 454:	8f75                	and	a4,a4,a3
 456:	c398                	sw	a4,0(a5)
 458:	43d8                	lw	a4,4(a5)
 45a:	ff8106b7          	lui	a3,0xff810
 45e:	16fd                	addi	a3,a3,-1
 460:	8f75                	and	a4,a4,a3
 462:	c3d8                	sw	a4,4(a5)
 464:	4398                	lw	a4,0(a5)
 466:	ec0006b7          	lui	a3,0xec000
 46a:	16fd                	addi	a3,a3,-1
 46c:	8f75                	and	a4,a4,a3
 46e:	c398                	sw	a4,0(a5)
 470:	00ff0737          	lui	a4,0xff0
 474:	c798                	sw	a4,8(a5)
 476:	0207a623          	sw	zero,44(a5) # 4002102c <_eusrstack+0x2001102c>
 47a:	c402                	sw	zero,8(sp)
 47c:	c602                	sw	zero,12(sp)
 47e:	4398                	lw	a4,0(a5)
 480:	66c1                	lui	a3,0x10
 482:	8f55                	or	a4,a4,a3
 484:	c398                	sw	a4,0(a5)
 486:	400216b7          	lui	a3,0x40021
 48a:	6705                	lui	a4,0x1
 48c:	429c                	lw	a5,0(a3)
 48e:	8ff1                	and	a5,a5,a2
 490:	c63e                	sw	a5,12(sp)
 492:	47a2                	lw	a5,8(sp)
 494:	0785                	addi	a5,a5,1
 496:	c43e                	sw	a5,8(sp)
 498:	47b2                	lw	a5,12(sp)
 49a:	e781                	bnez	a5,4a2 <SystemInit+0x7e>
 49c:	47a2                	lw	a5,8(sp)
 49e:	fee797e3          	bne	a5,a4,48c <SystemInit+0x68>
 4a2:	400217b7          	lui	a5,0x40021
 4a6:	439c                	lw	a5,0(a5)
 4a8:	00020737          	lui	a4,0x20
 4ac:	8ff9                	and	a5,a5,a4
 4ae:	c7b5                	beqz	a5,51a <SystemInit+0xf6>
 4b0:	4785                	li	a5,1
 4b2:	c63e                	sw	a5,12(sp)
 4b4:	4732                	lw	a4,12(sp)
 4b6:	4785                	li	a5,1
 4b8:	04f71f63          	bne	a4,a5,516 <SystemInit+0xf2>
 4bc:	400217b7          	lui	a5,0x40021
 4c0:	43d8                	lw	a4,4(a5)
 4c2:	ffc106b7          	lui	a3,0xffc10
 4c6:	16fd                	addi	a3,a3,-1
 4c8:	c3d8                	sw	a4,4(a5)
 4ca:	43d8                	lw	a4,4(a5)
 4cc:	c3d8                	sw	a4,4(a5)
 4ce:	43d8                	lw	a4,4(a5)
 4d0:	40076713          	ori	a4,a4,1024
 4d4:	c3d8                	sw	a4,4(a5)
 4d6:	43d8                	lw	a4,4(a5)
 4d8:	8f75                	and	a4,a4,a3
 4da:	c3d8                	sw	a4,4(a5)
 4dc:	43d8                	lw	a4,4(a5)
 4de:	001d06b7          	lui	a3,0x1d0
 4e2:	8f55                	or	a4,a4,a3
 4e4:	c3d8                	sw	a4,4(a5)
 4e6:	4398                	lw	a4,0(a5)
 4e8:	010006b7          	lui	a3,0x1000
 4ec:	8f55                	or	a4,a4,a3
 4ee:	c398                	sw	a4,0(a5)
 4f0:	020006b7          	lui	a3,0x2000
 4f4:	4398                	lw	a4,0(a5)
 4f6:	8f75                	and	a4,a4,a3
 4f8:	df75                	beqz	a4,4f4 <SystemInit+0xd0>
 4fa:	43d8                	lw	a4,4(a5)
 4fc:	400216b7          	lui	a3,0x40021
 500:	9b71                	andi	a4,a4,-4
 502:	c3d8                	sw	a4,4(a5)
 504:	43d8                	lw	a4,4(a5)
 506:	00276713          	ori	a4,a4,2
 50a:	c3d8                	sw	a4,4(a5)
 50c:	4721                	li	a4,8
 50e:	42dc                	lw	a5,4(a3)
 510:	8bb1                	andi	a5,a5,12
 512:	fee79ee3          	bne	a5,a4,50e <SystemInit+0xea>
 516:	0141                	addi	sp,sp,16
 518:	8082                	ret
 51a:	c602                	sw	zero,12(sp)
 51c:	bf61                	j	4b4 <SystemInit+0x90>
 51e:	a001                	j	51e <SystemInit+0xfa>
 520:	a001                	j	520 <SystemInit+0xfc>

00000522 <Ecall_M_Mode_Handler>:
 522:	a001                	j	522 <Ecall_M_Mode_Handler>

00000524 <Ecall_U_Mode_Handler>:
 524:	a001                	j	524 <Ecall_U_Mode_Handler>

00000526 <Break_Point_Handler>:
 526:	a001                	j	526 <Break_Point_Handler>

00000528 <SysTick_Handler>:
 528:	a001                	j	528 <SysTick_Handler>

0000052a <SW_Handler>:
 52a:	a001                	j	52a <SW_Handler>

0000052c <WWDG_IRQHandler>:
 52c:	a001                	j	52c <WWDG_IRQHandler>

0000052e <PVD_IRQHandler>:
 52e:	a001                	j	52e <PVD_IRQHandler>

00000530 <TAMPER_IRQHandler>:
 530:	a001                	j	530 <TAMPER_IRQHandler>

00000532 <RTC_IRQHandler>:
 532:	a001                	j	532 <RTC_IRQHandler>

00000534 <FLASH_IRQHandler>:
 534:	a001                	j	534 <FLASH_IRQHandler>

00000536 <RCC_IRQHandler>:
 536:	a001                	j	536 <RCC_IRQHandler>

00000538 <EXTI0_IRQHandler>:
 538:	a001                	j	538 <EXTI0_IRQHandler>

0000053a <EXTI1_IRQHandler>:
 53a:	a001                	j	53a <EXTI1_IRQHandler>

0000053c <EXTI2_IRQHandler>:
 53c:	a001                	j	53c <EXTI2_IRQHandler>

0000053e <EXTI3_IRQHandler>:
 53e:	a001                	j	53e <EXTI3_IRQHandler>

00000540 <EXTI4_IRQHandler>:
 540:	a001                	j	540 <EXTI4_IRQHandler>

00000542 <DMA1_Channel1_IRQHandler>:
 542:	a001                	j	542 <DMA1_Channel1_IRQHandler>

00000544 <DMA1_Channel2_IRQHandler>:
 544:	a001                	j	544 <DMA1_Channel2_IRQHandler>

00000546 <DMA1_Channel3_IRQHandler>:
 546:	a001                	j	546 <DMA1_Channel3_IRQHandler>

00000548 <DMA1_Channel4_IRQHandler>:
 548:	a001                	j	548 <DMA1_Channel4_IRQHandler>

0000054a <DMA1_Channel5_IRQHandler>:
 54a:	a001                	j	54a <DMA1_Channel5_IRQHandler>

0000054c <DMA1_Channel6_IRQHandler>:
 54c:	a001                	j	54c <DMA1_Channel6_IRQHandler>

0000054e <DMA1_Channel7_IRQHandler>:
 54e:	a001                	j	54e <DMA1_Channel7_IRQHandler>

00000550 <ADC1_2_IRQHandler>:
 550:	a001                	j	550 <ADC1_2_IRQHandler>

00000552 <USB_HP_CAN1_TX_IRQHandler>:
 552:	a001                	j	552 <USB_HP_CAN1_TX_IRQHandler>

00000554 <USB_LP_CAN1_RX0_IRQHandler>:
 554:	a001                	j	554 <USB_LP_CAN1_RX0_IRQHandler>

00000556 <CAN1_RX1_IRQHandler>:
 556:	a001                	j	556 <CAN1_RX1_IRQHandler>

00000558 <CAN1_SCE_IRQHandler>:
 558:	a001                	j	558 <CAN1_SCE_IRQHandler>

0000055a <EXTI9_5_IRQHandler>:
 55a:	a001                	j	55a <EXTI9_5_IRQHandler>

0000055c <TIM1_BRK_IRQHandler>:
 55c:	a001                	j	55c <TIM1_BRK_IRQHandler>

0000055e <TIM1_UP_IRQHandler>:
 55e:	a001                	j	55e <TIM1_UP_IRQHandler>

00000560 <TIM1_TRG_COM_IRQHandler>:
 560:	a001                	j	560 <TIM1_TRG_COM_IRQHandler>

00000562 <TIM1_CC_IRQHandler>:
 562:	a001                	j	562 <TIM1_CC_IRQHandler>

00000564 <TIM2_IRQHandler>:
 564:	a001                	j	564 <TIM2_IRQHandler>

00000566 <TIM3_IRQHandler>:
 566:	a001                	j	566 <TIM3_IRQHandler>

00000568 <TIM4_IRQHandler>:
 568:	a001                	j	568 <TIM4_IRQHandler>

0000056a <I2C1_EV_IRQHandler>:
 56a:	a001                	j	56a <I2C1_EV_IRQHandler>

0000056c <I2C1_ER_IRQHandler>:
 56c:	a001                	j	56c <I2C1_ER_IRQHandler>

0000056e <I2C2_EV_IRQHandler>:
 56e:	a001                	j	56e <I2C2_EV_IRQHandler>

00000570 <I2C2_ER_IRQHandler>:
 570:	a001                	j	570 <I2C2_ER_IRQHandler>

00000572 <SPI1_IRQHandler>:
 572:	a001                	j	572 <SPI1_IRQHandler>

00000574 <SPI2_IRQHandler>:
 574:	a001                	j	574 <SPI2_IRQHandler>

00000576 <USART1_IRQHandler>:
 576:	a001                	j	576 <USART1_IRQHandler>

00000578 <USART2_IRQHandler>:
 578:	a001                	j	578 <USART2_IRQHandler>

0000057a <USART3_IRQHandler>:
 57a:	a001                	j	57a <USART3_IRQHandler>

0000057c <EXTI15_10_IRQHandler>:
 57c:	a001                	j	57c <EXTI15_10_IRQHandler>

0000057e <RTCAlarm_IRQHandler>:
 57e:	a001                	j	57e <RTCAlarm_IRQHandler>

00000580 <USBWakeUp_IRQHandler>:
 580:	a001                	j	580 <USBWakeUp_IRQHandler>

00000582 <TIM8_BRK_IRQHandler>:
 582:	a001                	j	582 <TIM8_BRK_IRQHandler>

00000584 <TIM8_UP_IRQHandler>:
 584:	a001                	j	584 <TIM8_UP_IRQHandler>

00000586 <TIM8_TRG_COM_IRQHandler>:
 586:	a001                	j	586 <TIM8_TRG_COM_IRQHandler>

00000588 <TIM8_CC_IRQHandler>:
 588:	a001                	j	588 <TIM8_CC_IRQHandler>

0000058a <RNG_IRQHandler>:
 58a:	a001                	j	58a <RNG_IRQHandler>

0000058c <FSMC_IRQHandler>:
 58c:	a001                	j	58c <FSMC_IRQHandler>

0000058e <SDIO_IRQHandler>:
 58e:	a001                	j	58e <SDIO_IRQHandler>

00000590 <TIM5_IRQHandler>:
 590:	a001                	j	590 <TIM5_IRQHandler>

00000592 <SPI3_IRQHandler>:
 592:	a001                	j	592 <SPI3_IRQHandler>

00000594 <UART4_IRQHandler>:
 594:	a001                	j	594 <UART4_IRQHandler>

00000596 <UART5_IRQHandler>:
 596:	a001                	j	596 <UART5_IRQHandler>

00000598 <TIM6_IRQHandler>:
 598:	a001                	j	598 <TIM6_IRQHandler>

0000059a <TIM7_IRQHandler>:
 59a:	a001                	j	59a <TIM7_IRQHandler>

0000059c <DMA2_Channel1_IRQHandler>:
 59c:	a001                	j	59c <DMA2_Channel1_IRQHandler>

0000059e <DMA2_Channel2_IRQHandler>:
 59e:	a001                	j	59e <DMA2_Channel2_IRQHandler>

000005a0 <DMA2_Channel3_IRQHandler>:
 5a0:	a001                	j	5a0 <DMA2_Channel3_IRQHandler>

000005a2 <DMA2_Channel4_IRQHandler>:
 5a2:	a001                	j	5a2 <DMA2_Channel4_IRQHandler>

000005a4 <DMA2_Channel5_IRQHandler>:
 5a4:	a001                	j	5a4 <DMA2_Channel5_IRQHandler>

000005a6 <ETH_IRQHandler>:
 5a6:	a001                	j	5a6 <ETH_IRQHandler>

000005a8 <ETH_WKUP_IRQHandler>:
 5a8:	a001                	j	5a8 <ETH_WKUP_IRQHandler>

000005aa <CAN2_TX_IRQHandler>:
 5aa:	a001                	j	5aa <CAN2_TX_IRQHandler>

000005ac <CAN2_RX0_IRQHandler>:
 5ac:	a001                	j	5ac <CAN2_RX0_IRQHandler>

000005ae <CAN2_RX1_IRQHandler>:
 5ae:	a001                	j	5ae <CAN2_RX1_IRQHandler>

000005b0 <CAN2_SCE_IRQHandler>:
 5b0:	a001                	j	5b0 <CAN2_SCE_IRQHandler>

000005b2 <OTG_FS_IRQHandler>:
 5b2:	a001                	j	5b2 <OTG_FS_IRQHandler>

000005b4 <USBHSWakeup_IRQHandler>:
 5b4:	a001                	j	5b4 <USBHSWakeup_IRQHandler>

000005b6 <USBHS_IRQHandler>:
 5b6:	a001                	j	5b6 <USBHS_IRQHandler>

000005b8 <DVP_IRQHandler>:
 5b8:	a001                	j	5b8 <DVP_IRQHandler>

000005ba <UART6_IRQHandler>:
 5ba:	a001                	j	5ba <UART6_IRQHandler>

000005bc <UART7_IRQHandler>:
 5bc:	a001                	j	5bc <UART7_IRQHandler>

000005be <UART8_IRQHandler>:
 5be:	a001                	j	5be <UART8_IRQHandler>

000005c0 <TIM9_BRK_IRQHandler>:
 5c0:	a001                	j	5c0 <TIM9_BRK_IRQHandler>

000005c2 <TIM9_UP_IRQHandler>:
 5c2:	a001                	j	5c2 <TIM9_UP_IRQHandler>

000005c4 <TIM9_TRG_COM_IRQHandler>:
 5c4:	a001                	j	5c4 <TIM9_TRG_COM_IRQHandler>

000005c6 <TIM9_CC_IRQHandler>:
 5c6:	a001                	j	5c6 <TIM9_CC_IRQHandler>

000005c8 <TIM10_BRK_IRQHandler>:
 5c8:	a001                	j	5c8 <TIM10_BRK_IRQHandler>

000005ca <TIM10_UP_IRQHandler>:
 5ca:	a001                	j	5ca <TIM10_UP_IRQHandler>

000005cc <TIM10_TRG_COM_IRQHandler>:
 5cc:	a001                	j	5cc <TIM10_TRG_COM_IRQHandler>

000005ce <TIM10_CC_IRQHandler>:
 5ce:	a001                	j	5ce <TIM10_CC_IRQHandler>

000005d0 <DMA2_Channel6_IRQHandler>:
 5d0:	a001                	j	5d0 <DMA2_Channel6_IRQHandler>

000005d2 <DMA2_Channel7_IRQHandler>:
 5d2:	a001                	j	5d2 <DMA2_Channel7_IRQHandler>

000005d4 <DMA2_Channel8_IRQHandler>:
 5d4:	a001                	j	5d4 <DMA2_Channel8_IRQHandler>

000005d6 <DMA2_Channel9_IRQHandler>:
 5d6:	a001                	j	5d6 <DMA2_Channel9_IRQHandler>

000005d8 <DMA2_Channel10_IRQHandler>:
 5d8:	a001                	j	5d8 <DMA2_Channel10_IRQHandler>

000005da <DMA2_Channel11_IRQHandler>:
 5da:	a001                	j	5da <DMA2_Channel11_IRQHandler>

000005dc <handle_reset>:
 5dc:	20000197          	auipc	gp,0x20000
 5e0:	22418193          	addi	gp,gp,548 # 20000800 <__global_pointer$>
 5e4:	20010117          	auipc	sp,0x20010
 5e8:	a1c10113          	addi	sp,sp,-1508 # 20010000 <_eusrstack>
 5ec:	7f000513          	li	a0,2032
 5f0:	20000597          	auipc	a1,0x20000
 5f4:	a1058593          	addi	a1,a1,-1520 # 20000000 <SystemCoreClock>
 5f8:	80818613          	addi	a2,gp,-2040 # 20000008 <NVIC_Priority_Group>
 5fc:	00c5fa63          	bgeu	a1,a2,610 <handle_reset+0x34>
 600:	00052283          	lw	t0,0(a0)
 604:	0055a023          	sw	t0,0(a1)
 608:	0511                	addi	a0,a0,4
 60a:	0591                	addi	a1,a1,4
 60c:	fec5eae3          	bltu	a1,a2,600 <handle_reset+0x24>
 610:	80818513          	addi	a0,gp,-2040 # 20000008 <NVIC_Priority_Group>
 614:	81018593          	addi	a1,gp,-2032 # 20000010 <_ebss>
 618:	00b57763          	bgeu	a0,a1,626 <handle_reset+0x4a>
 61c:	00052023          	sw	zero,0(a0)
 620:	0511                	addi	a0,a0,4
 622:	feb56de3          	bltu	a0,a1,61c <handle_reset+0x40>
 626:	42fd                	li	t0,31
 628:	bc029073          	csrw	0xbc0,t0
 62c:	42ad                	li	t0,11
 62e:	80429073          	csrw	0x804,t0
 632:	6299                	lui	t0,0x6
 634:	08828293          	addi	t0,t0,136 # 6088 <__stack_size+0x5888>
 638:	3002a073          	csrs	mstatus,t0
 63c:	00000297          	auipc	t0,0x0
 640:	9fc28293          	addi	t0,t0,-1540 # 38 <_einit>
 644:	0032e293          	ori	t0,t0,3
 648:	30529073          	csrw	mtvec,t0
 64c:	dd9ff0ef          	jal	ra,424 <SystemInit>
 650:	00000297          	auipc	t0,0x0
 654:	da428293          	addi	t0,t0,-604 # 3f4 <main>
 658:	34129073          	csrw	mepc,t0
 65c:	30200073          	mret

00000660 <GPIO_Init>:
 660:	459c                	lw	a5,8(a1)
 662:	0107f713          	andi	a4,a5,16
 666:	00f7f813          	andi	a6,a5,15
 66a:	c701                	beqz	a4,672 <GPIO_Init+0x12>
 66c:	41d8                	lw	a4,4(a1)
 66e:	00e86833          	or	a6,a6,a4
 672:	0005d583          	lhu	a1,0(a1)
 676:	0ff5f713          	zext.b	a4,a1
 67a:	c339                	beqz	a4,6c0 <GPIO_Init+0x60>
 67c:	4118                	lw	a4,0(a0)
 67e:	4681                	li	a3,0
 680:	4e85                	li	t4,1
 682:	4f3d                	li	t5,15
 684:	02800f93          	li	t6,40
 688:	04800293          	li	t0,72
 68c:	4e21                	li	t3,8
 68e:	00de9633          	sll	a2,t4,a3
 692:	00c5f8b3          	and	a7,a1,a2
 696:	03161163          	bne	a2,a7,6b8 <GPIO_Init+0x58>
 69a:	00269893          	slli	a7,a3,0x2
 69e:	011f1333          	sll	t1,t5,a7
 6a2:	fff34313          	not	t1,t1
 6a6:	00e37733          	and	a4,t1,a4
 6aa:	011818b3          	sll	a7,a6,a7
 6ae:	00e8e733          	or	a4,a7,a4
 6b2:	07f79063          	bne	a5,t6,712 <GPIO_Init+0xb2>
 6b6:	c950                	sw	a2,20(a0)
 6b8:	0685                	addi	a3,a3,1
 6ba:	fdc69ae3          	bne	a3,t3,68e <GPIO_Init+0x2e>
 6be:	c118                	sw	a4,0(a0)
 6c0:	0ff00713          	li	a4,255
 6c4:	04b77663          	bgeu	a4,a1,710 <GPIO_Init+0xb0>
 6c8:	4154                	lw	a3,4(a0)
 6ca:	4601                	li	a2,0
 6cc:	4e85                	li	t4,1
 6ce:	4f3d                	li	t5,15
 6d0:	02800f93          	li	t6,40
 6d4:	04800293          	li	t0,72
 6d8:	4e21                	li	t3,8
 6da:	00860713          	addi	a4,a2,8 # 20008 <__stack_size+0x1f808>
 6de:	00ee9733          	sll	a4,t4,a4
 6e2:	00e5f8b3          	and	a7,a1,a4
 6e6:	03171163          	bne	a4,a7,708 <GPIO_Init+0xa8>
 6ea:	00261893          	slli	a7,a2,0x2
 6ee:	011f1333          	sll	t1,t5,a7
 6f2:	fff34313          	not	t1,t1
 6f6:	00d376b3          	and	a3,t1,a3
 6fa:	011818b3          	sll	a7,a6,a7
 6fe:	00d8e6b3          	or	a3,a7,a3
 702:	01f79c63          	bne	a5,t6,71a <GPIO_Init+0xba>
 706:	c958                	sw	a4,20(a0)
 708:	0605                	addi	a2,a2,1
 70a:	fdc618e3          	bne	a2,t3,6da <GPIO_Init+0x7a>
 70e:	c154                	sw	a3,4(a0)
 710:	8082                	ret
 712:	fa5793e3          	bne	a5,t0,6b8 <GPIO_Init+0x58>
 716:	c910                	sw	a2,16(a0)
 718:	b745                	j	6b8 <GPIO_Init+0x58>
 71a:	fe5797e3          	bne	a5,t0,708 <GPIO_Init+0xa8>
 71e:	c918                	sw	a4,16(a0)
 720:	b7e5                	j	708 <GPIO_Init+0xa8>

00000722 <GPIO_ReadInputDataBit>:
 722:	4508                	lw	a0,8(a0)
 724:	8d6d                	and	a0,a0,a1
 726:	00a03533          	snez	a0,a0
 72a:	8082                	ret

0000072c <GPIO_SetBits>:
 72c:	c90c                	sw	a1,16(a0)
 72e:	8082                	ret

00000730 <GPIO_ResetBits>:
 730:	c94c                	sw	a1,20(a0)
 732:	8082                	ret

00000734 <NVIC_PriorityGroupConfig>:
 734:	80a1a423          	sw	a0,-2040(gp) # 20000008 <NVIC_Priority_Group>
 738:	8082                	ret

0000073a <RCC_APB2PeriphClockCmd>:
 73a:	c599                	beqz	a1,748 <RCC_APB2PeriphClockCmd+0xe>
 73c:	40021737          	lui	a4,0x40021
 740:	4f1c                	lw	a5,24(a4)
 742:	8d5d                	or	a0,a0,a5
 744:	cf08                	sw	a0,24(a4)
 746:	8082                	ret
 748:	400217b7          	lui	a5,0x40021
 74c:	4f98                	lw	a4,24(a5)
 74e:	fff54513          	not	a0,a0
 752:	8d79                	and	a0,a0,a4
 754:	cf88                	sw	a0,24(a5)
 756:	8082                	ret

00000758 <Delay_Init>:
 758:	200007b7          	lui	a5,0x20000
 75c:	0007a783          	lw	a5,0(a5) # 20000000 <SystemCoreClock>
 760:	007a1737          	lui	a4,0x7a1
 764:	20070713          	addi	a4,a4,512 # 7a1200 <__stack_size+0x7a0a00>
 768:	02e7d7b3          	divu	a5,a5,a4
 76c:	0ff7f793          	zext.b	a5,a5
 770:	80f18723          	sb	a5,-2034(gp) # 2000000e <p_us>
 774:	3e800713          	li	a4,1000
 778:	02e787b3          	mul	a5,a5,a4
 77c:	80f19623          	sh	a5,-2036(gp) # 2000000c <p_ms>
 780:	8082                	ret

00000782 <Delay_Us>:
 782:	e000f7b7          	lui	a5,0xe000f
 786:	43d8                	lw	a4,4(a5)
 788:	4681                	li	a3,0
 78a:	9b79                	andi	a4,a4,-2
 78c:	c3d8                	sw	a4,4(a5)
 78e:	80e1c703          	lbu	a4,-2034(gp) # 2000000e <p_us>
 792:	02a70633          	mul	a2,a4,a0
 796:	cb90                	sw	a2,16(a5)
 798:	cbd4                	sw	a3,20(a5)
 79a:	4398                	lw	a4,0(a5)
 79c:	01076713          	ori	a4,a4,16
 7a0:	c398                	sw	a4,0(a5)
 7a2:	4398                	lw	a4,0(a5)
 7a4:	02176713          	ori	a4,a4,33
 7a8:	c398                	sw	a4,0(a5)
 7aa:	43d8                	lw	a4,4(a5)
 7ac:	8b05                	andi	a4,a4,1
 7ae:	df75                	beqz	a4,7aa <Delay_Us+0x28>
 7b0:	4398                	lw	a4,0(a5)
 7b2:	9b79                	andi	a4,a4,-2
 7b4:	c398                	sw	a4,0(a5)
 7b6:	8082                	ret

000007b8 <Delay_Ms>:
 7b8:	e000f7b7          	lui	a5,0xe000f
 7bc:	43d8                	lw	a4,4(a5)
 7be:	4681                	li	a3,0
 7c0:	9b79                	andi	a4,a4,-2
 7c2:	c3d8                	sw	a4,4(a5)
 7c4:	80c1d703          	lhu	a4,-2036(gp) # 2000000c <p_ms>
 7c8:	02a70633          	mul	a2,a4,a0
 7cc:	cb90                	sw	a2,16(a5)
 7ce:	cbd4                	sw	a3,20(a5)
 7d0:	4398                	lw	a4,0(a5)
 7d2:	01076713          	ori	a4,a4,16
 7d6:	c398                	sw	a4,0(a5)
 7d8:	4398                	lw	a4,0(a5)
 7da:	02176713          	ori	a4,a4,33
 7de:	c398                	sw	a4,0(a5)
 7e0:	43d8                	lw	a4,4(a5)
 7e2:	8b05                	andi	a4,a4,1
 7e4:	df75                	beqz	a4,7e0 <Delay_Ms+0x28>
 7e6:	4398                	lw	a4,0(a5)
 7e8:	9b79                	andi	a4,a4,-2
 7ea:	c398                	sw	a4,0(a5)
 7ec:	8082                	ret
	...
